target datalayout = "e-m:e-p270:32:32-p271:32:32-p272:64:64-i64:64-i128:128-f80:128-n8:16:32:64-S128"
target triple = "x86_64-pc-linux-gnu"

; Function Attrs: nounwind uwtable
define internal zeroext i8 @interpolate_biquadratic(float noundef %0, float noundef %1, ptr noundef %2, i32 noundef %3, i32 noundef %4, i32 noundef %5, i8 noundef zeroext %6) #0 {
  %8 = alloca i8, align 1
  %9 = alloca float, align 4
  %10 = alloca float, align 4
  %11 = alloca ptr, align 8
  %12 = alloca i32, align 4
  %13 = alloca i32, align 4
  %14 = alloca i32, align 4
  %15 = alloca i8, align 1
  %16 = alloca i32, align 4
  %17 = alloca i32, align 4
  %18 = alloca i32, align 4
  %19 = alloca i32, align 4
  %20 = alloca i8, align 1
  %21 = alloca i8, align 1
  %22 = alloca i8, align 1
  %23 = alloca i8, align 1
  %24 = alloca float, align 4
  %25 = alloca float, align 4
  %26 = alloca float, align 4
  %27 = alloca float, align 4
  %28 = alloca i32, align 4
  store float %0, ptr %9, align 4, !tbaa !4
  store float %1, ptr %10, align 4, !tbaa !4
  store ptr %2, ptr %11, align 8, !tbaa !11
  store i32 %3, ptr %12, align 4, !tbaa !13
  store i32 %4, ptr %13, align 4, !tbaa !13
  store i32 %5, ptr %14, align 4, !tbaa !13
  store i8 %6, ptr %15, align 1, !tbaa !15
  call void @llvm.lifetime.start.p0(i64 4, ptr %16) #4
  call void @llvm.lifetime.start.p0(i64 4, ptr %17) #4
  call void @llvm.lifetime.start.p0(i64 4, ptr %18) #4
  call void @llvm.lifetime.start.p0(i64 4, ptr %19) #4
  call void @llvm.lifetime.start.p0(i64 1, ptr %20) #4
  call void @llvm.lifetime.start.p0(i64 1, ptr %21) #4
  call void @llvm.lifetime.start.p0(i64 1, ptr %22) #4
  call void @llvm.lifetime.start.p0(i64 1, ptr %23) #4
  call void @llvm.lifetime.start.p0(i64 4, ptr %24) #4
  call void @llvm.lifetime.start.p0(i64 4, ptr %25) #4
  call void @llvm.lifetime.start.p0(i64 4, ptr %26) #4
  call void @llvm.lifetime.start.p0(i64 4, ptr %27) #4
  %29 = load float, ptr %9, align 4, !tbaa !4
  %30 = fcmp nsz olt float %29, -1.000000e+00
  br i1 %30, label %44, label %31

31:                                               ; preds = %7
  %32 = load float, ptr %9, align 4, !tbaa !4
  %33 = load i32, ptr %12, align 4, !tbaa !13
  %34 = sitofp i32 %33 to float
  %35 = fcmp nsz ogt float %32, %34
  br i1 %35, label %44, label %36

36:                                               ; preds = %31
  %37 = load float, ptr %10, align 4, !tbaa !4
  %38 = fcmp nsz olt float %37, -1.000000e+00
  br i1 %38, label %44, label %39

39:                                               ; preds = %36
  %40 = load float, ptr %10, align 4, !tbaa !4
  %41 = load i32, ptr %13, align 4, !tbaa !13
  %42 = sitofp i32 %41 to float
  %43 = fcmp nsz ogt float %40, %42
  br i1 %43, label %44, label %46

44:                                               ; preds = %39, %36, %31, %7
  %45 = load i8, ptr %15, align 1, !tbaa !15
  store i8 %45, ptr %8, align 1
  store i32 1, ptr %28, align 4
  br label %276

46:                                               ; preds = %39
  %47 = load float, ptr %9, align 4, !tbaa !4
  %48 = fptosi float %47 to i32
  store i32 %48, ptr %17, align 4, !tbaa !13
  %49 = load i32, ptr %17, align 4, !tbaa !13
  %50 = add nsw i32 %49, 1
  store i32 %50, ptr %16, align 4, !tbaa !13
  %51 = load float, ptr %10, align 4, !tbaa !4
  %52 = fptosi float %51 to i32
  store i32 %52, ptr %19, align 4, !tbaa !13
  %53 = load i32, ptr %19, align 4, !tbaa !13
  %54 = add nsw i32 %53, 1
  store i32 %54, ptr %18, align 4, !tbaa !13
  %55 = load i32, ptr %16, align 4, !tbaa !13
  %56 = icmp slt i32 %55, 0
  br i1 %56, label %60, label %57

57:                                               ; preds = %46
  %58 = load i32, ptr %18, align 4, !tbaa !13
  %59 = icmp slt i32 %58, 0
  br i1 %59, label %60, label %63

60:                                               ; preds = %57, %46
  %61 = load i8, ptr %15, align 1, !tbaa !15
  %62 = zext i8 %61 to i32
  br label %87

63:                                               ; preds = %57
  %64 = load i32, ptr %16, align 4, !tbaa !13
  %65 = load i32, ptr %12, align 4, !tbaa !13
  %66 = icmp sge i32 %64, %65
  br i1 %66, label %71, label %67

67:                                               ; preds = %63
  %68 = load i32, ptr %18, align 4, !tbaa !13
  %69 = load i32, ptr %13, align 4, !tbaa !13
  %70 = icmp sge i32 %68, %69
  br i1 %70, label %71, label %74

71:                                               ; preds = %67, %63
  %72 = load i8, ptr %15, align 1, !tbaa !15
  %73 = zext i8 %72 to i32
  br label %85

74:                                               ; preds = %67
  %75 = load ptr, ptr %11, align 8, !tbaa !11
  %76 = load i32, ptr %16, align 4, !tbaa !13
  %77 = load i32, ptr %18, align 4, !tbaa !13
  %78 = load i32, ptr %14, align 4, !tbaa !13
  %79 = mul nsw i32 %77, %78
  %80 = add nsw i32 %76, %79
  %81 = sext i32 %80 to i64
  %82 = getelementptr inbounds i8, ptr %75, i64 %81
  %83 = load i8, ptr %82, align 1, !tbaa !15
  %84 = zext i8 %83 to i32
  br label %85

85:                                               ; preds = %74, %71
  %86 = phi i32 [ %73, %71 ], [ %84, %74 ]
  br label %87

87:                                               ; preds = %85, %60
  %88 = phi i32 [ %62, %60 ], [ %86, %85 ]
  %89 = trunc i32 %88 to i8
  store i8 %89, ptr %20, align 1, !tbaa !15
  %90 = load i32, ptr %16, align 4, !tbaa !13
  %91 = icmp slt i32 %90, 0
  br i1 %91, label %95, label %92

92:                                               ; preds = %87
  %93 = load i32, ptr %19, align 4, !tbaa !13
  %94 = icmp slt i32 %93, 0
  br i1 %94, label %95, label %98

95:                                               ; preds = %92, %87
  %96 = load i8, ptr %15, align 1, !tbaa !15
  %97 = zext i8 %96 to i32
  br label %122

98:                                               ; preds = %92
  %99 = load i32, ptr %16, align 4, !tbaa !13
  %100 = load i32, ptr %12, align 4, !tbaa !13
  %101 = icmp sge i32 %99, %100
  br i1 %101, label %106, label %102

102:                                              ; preds = %98
  %103 = load i32, ptr %19, align 4, !tbaa !13
  %104 = load i32, ptr %13, align 4, !tbaa !13
  %105 = icmp sge i32 %103, %104
  br i1 %105, label %106, label %109

106:                                              ; preds = %102, %98
  %107 = load i8, ptr %15, align 1, !tbaa !15
  %108 = zext i8 %107 to i32
  br label %120

109:                                              ; preds = %102
  %110 = load ptr, ptr %11, align 8, !tbaa !11
  %111 = load i32, ptr %16, align 4, !tbaa !13
  %112 = load i32, ptr %19, align 4, !tbaa !13
  %113 = load i32, ptr %14, align 4, !tbaa !13
  %114 = mul nsw i32 %112, %113
  %115 = add nsw i32 %111, %114
  %116 = sext i32 %115 to i64
  %117 = getelementptr inbounds i8, ptr %110, i64 %116
  %118 = load i8, ptr %117, align 1, !tbaa !15
  %119 = zext i8 %118 to i32
  br label %120

120:                                              ; preds = %109, %106
  %121 = phi i32 [ %108, %106 ], [ %119, %109 ]
  br label %122

122:                                              ; preds = %120, %95
  %123 = phi i32 [ %97, %95 ], [ %121, %120 ]
  %124 = trunc i32 %123 to i8
  store i8 %124, ptr %21, align 1, !tbaa !15
  %125 = load i32, ptr %17, align 4, !tbaa !13
  %126 = icmp slt i32 %125, 0
  br i1 %126, label %130, label %127

127:                                              ; preds = %122
  %128 = load i32, ptr %18, align 4, !tbaa !13
  %129 = icmp slt i32 %128, 0
  br i1 %129, label %130, label %133

130:                                              ; preds = %127, %122
  %131 = load i8, ptr %15, align 1, !tbaa !15
  %132 = zext i8 %131 to i32
  br label %157

133:                                              ; preds = %127
  %134 = load i32, ptr %17, align 4, !tbaa !13
  %135 = load i32, ptr %12, align 4, !tbaa !13
  %136 = icmp sge i32 %134, %135
  br i1 %136, label %141, label %137

137:                                              ; preds = %133
  %138 = load i32, ptr %18, align 4, !tbaa !13
  %139 = load i32, ptr %13, align 4, !tbaa !13
  %140 = icmp sge i32 %138, %139
  br i1 %140, label %141, label %144

141:                                              ; preds = %137, %133
  %142 = load i8, ptr %15, align 1, !tbaa !15
  %143 = zext i8 %142 to i32
  br label %155

144:                                              ; preds = %137
  %145 = load ptr, ptr %11, align 8, !tbaa !11
  %146 = load i32, ptr %17, align 4, !tbaa !13
  %147 = load i32, ptr %18, align 4, !tbaa !13
  %148 = load i32, ptr %14, align 4, !tbaa !13
  %149 = mul nsw i32 %147, %148
  %150 = add nsw i32 %146, %149
  %151 = sext i32 %150 to i64
  %152 = getelementptr inbounds i8, ptr %145, i64 %151
  %153 = load i8, ptr %152, align 1, !tbaa !15
  %154 = zext i8 %153 to i32
  br label %155

155:                                              ; preds = %144, %141
  %156 = phi i32 [ %143, %141 ], [ %154, %144 ]
  br label %157

157:                                              ; preds = %155, %130
  %158 = phi i32 [ %132, %130 ], [ %156, %155 ]
  %159 = trunc i32 %158 to i8
  store i8 %159, ptr %22, align 1, !tbaa !15
  %160 = load i32, ptr %17, align 4, !tbaa !13
  %161 = icmp slt i32 %160, 0
  br i1 %161, label %165, label %162

162:                                              ; preds = %157
  %163 = load i32, ptr %19, align 4, !tbaa !13
  %164 = icmp slt i32 %163, 0
  br i1 %164, label %165, label %168

165:                                              ; preds = %162, %157
  %166 = load i8, ptr %15, align 1, !tbaa !15
  %167 = zext i8 %166 to i32
  br label %192

168:                                              ; preds = %162
  %169 = load i32, ptr %17, align 4, !tbaa !13
  %170 = load i32, ptr %12, align 4, !tbaa !13
  %171 = icmp sge i32 %169, %170
  br i1 %171, label %176, label %172

172:                                              ; preds = %168
  %173 = load i32, ptr %19, align 4, !tbaa !13
  %174 = load i32, ptr %13, align 4, !tbaa !13
  %175 = icmp sge i32 %173, %174
  br i1 %175, label %176, label %179

176:                                              ; preds = %172, %168
  %177 = load i8, ptr %15, align 1, !tbaa !15
  %178 = zext i8 %177 to i32
  br label %190

179:                                              ; preds = %172
  %180 = load ptr, ptr %11, align 8, !tbaa !11
  %181 = load i32, ptr %17, align 4, !tbaa !13
  %182 = load i32, ptr %19, align 4, !tbaa !13
  %183 = load i32, ptr %14, align 4, !tbaa !13
  %184 = mul nsw i32 %182, %183
  %185 = add nsw i32 %181, %184
  %186 = sext i32 %185 to i64
  %187 = getelementptr inbounds i8, ptr %180, i64 %186
  %188 = load i8, ptr %187, align 1, !tbaa !15
  %189 = zext i8 %188 to i32
  br label %190

190:                                              ; preds = %179, %176
  %191 = phi i32 [ %178, %176 ], [ %189, %179 ]
  br label %192

192:                                              ; preds = %190, %165
  %193 = phi i32 [ %167, %165 ], [ %191, %190 ]
  %194 = trunc i32 %193 to i8
  store i8 %194, ptr %23, align 1, !tbaa !15
  %195 = load i32, ptr %16, align 4, !tbaa !13
  %196 = sitofp i32 %195 to float
  %197 = load float, ptr %9, align 4, !tbaa !4
  %198 = fsub nsz float %196, %197
  %199 = load i32, ptr %18, align 4, !tbaa !13
  %200 = sitofp i32 %199 to float
  %201 = load float, ptr %10, align 4, !tbaa !4
  %202 = fsub nsz float %200, %201
  %203 = fmul nsz float %198, %202
  %204 = fpext nsz float %203 to double
  %205 = call nsz double @llvm.sqrt.f64(double %204)
  %206 = fsub nsz double 1.000000e+00, %205
  %207 = fptrunc nsz double %206 to float
  store float %207, ptr %24, align 4, !tbaa !4
  %208 = load i32, ptr %16, align 4, !tbaa !13
  %209 = sitofp i32 %208 to float
  %210 = load float, ptr %9, align 4, !tbaa !4
  %211 = fsub nsz float %209, %210
  %212 = load float, ptr %10, align 4, !tbaa !4
  %213 = load i32, ptr %19, align 4, !tbaa !13
  %214 = sitofp i32 %213 to float
  %215 = fsub nsz float %212, %214
  %216 = fmul nsz float %211, %215
  %217 = fpext nsz float %216 to double
  %218 = call nsz double @llvm.sqrt.f64(double %217)
  %219 = fsub nsz double 1.000000e+00, %218
  %220 = fptrunc nsz double %219 to float
  store float %220, ptr %25, align 4, !tbaa !4
  %221 = load float, ptr %9, align 4, !tbaa !4
  %222 = load i32, ptr %17, align 4, !tbaa !13
  %223 = sitofp i32 %222 to float
  %224 = fsub nsz float %221, %223
  %225 = load i32, ptr %18, align 4, !tbaa !13
  %226 = sitofp i32 %225 to float
  %227 = load float, ptr %10, align 4, !tbaa !4
  %228 = fsub nsz float %226, %227
  %229 = fmul nsz float %224, %228
  %230 = fpext nsz float %229 to double
  %231 = call nsz double @llvm.sqrt.f64(double %230)
  %232 = fsub nsz double 1.000000e+00, %231
  %233 = fptrunc nsz double %232 to float
  store float %233, ptr %26, align 4, !tbaa !4
  %234 = load float, ptr %9, align 4, !tbaa !4
  %235 = load i32, ptr %17, align 4, !tbaa !13
  %236 = sitofp i32 %235 to float
  %237 = fsub nsz float %234, %236
  %238 = load float, ptr %10, align 4, !tbaa !4
  %239 = load i32, ptr %19, align 4, !tbaa !13
  %240 = sitofp i32 %239 to float
  %241 = fsub nsz float %238, %240
  %242 = fmul nsz float %237, %241
  %243 = fpext nsz float %242 to double
  %244 = call nsz double @llvm.sqrt.f64(double %243)
  %245 = fsub nsz double 1.000000e+00, %244
  %246 = fptrunc nsz double %245 to float
  store float %246, ptr %27, align 4, !tbaa !4
  %247 = load i8, ptr %20, align 1, !tbaa !15
  %248 = zext i8 %247 to i32
  %249 = sitofp i32 %248 to float
  %250 = load float, ptr %24, align 4, !tbaa !4
  %251 = load i8, ptr %21, align 1, !tbaa !15
  %252 = zext i8 %251 to i32
  %253 = sitofp i32 %252 to float
  %254 = load float, ptr %25, align 4, !tbaa !4
  %255 = fmul nsz float %253, %254
  %256 = call nsz float @llvm.fmuladd.f32(float %249, float %250, float %255)
  %257 = load i8, ptr %22, align 1, !tbaa !15
  %258 = zext i8 %257 to i32
  %259 = sitofp i32 %258 to float
  %260 = load float, ptr %26, align 4, !tbaa !4
  %261 = call nsz float @llvm.fmuladd.f32(float %259, float %260, float %256)
  %262 = load i8, ptr %23, align 1, !tbaa !15
  %263 = zext i8 %262 to i32
  %264 = sitofp i32 %263 to float
  %265 = load float, ptr %27, align 4, !tbaa !4
  %266 = call nsz float @llvm.fmuladd.f32(float %264, float %265, float %261)
  %267 = load float, ptr %24, align 4, !tbaa !4
  %268 = load float, ptr %25, align 4, !tbaa !4
  %269 = fadd nsz float %267, %268
  %270 = load float, ptr %26, align 4, !tbaa !4
  %271 = fadd nsz float %269, %270
  %272 = load float, ptr %27, align 4, !tbaa !4
  %273 = fadd nsz float %271, %272
  %274 = fdiv nsz float %266, %273
  %275 = fptoui float %274 to i8
  store i8 %275, ptr %8, align 1
  store i32 1, ptr %28, align 4
  br label %276

276:                                              ; preds = %192, %44
  call void @llvm.lifetime.end.p0(i64 4, ptr %27) #4
  call void @llvm.lifetime.end.p0(i64 4, ptr %26) #4
  call void @llvm.lifetime.end.p0(i64 4, ptr %25) #4
  call void @llvm.lifetime.end.p0(i64 4, ptr %24) #4
  call void @llvm.lifetime.end.p0(i64 1, ptr %23) #4
  call void @llvm.lifetime.end.p0(i64 1, ptr %22) #4
  call void @llvm.lifetime.end.p0(i64 1, ptr %21) #4
  call void @llvm.lifetime.end.p0(i64 1, ptr %20) #4
  call void @llvm.lifetime.end.p0(i64 4, ptr %19) #4
  call void @llvm.lifetime.end.p0(i64 4, ptr %18) #4
  call void @llvm.lifetime.end.p0(i64 4, ptr %17) #4
  call void @llvm.lifetime.end.p0(i64 4, ptr %16) #4
  %277 = load i8, ptr %8, align 1
  ret i8 %277
}