; Function Attrs: mustprogress nofree norecurse nosync nounwind willreturn memory(argmem: read) uwtable
define internal zeroext i8 @interpolate_biquadratic(float noundef %0, float noundef %1, ptr noundef readonly captures(none) %2, i32 noundef %3, i32 noundef %4, i32 noundef %5, i8 noundef zeroext %6) unnamed_addr #3 {
  %8 = fcmp nsz olt float %0, -1.000000e+00
  br i1 %8, label %97, label %9

9:                                                ; preds = %7
  %10 = sitofp i32 %3 to float
  %11 = fcmp nsz ogt float %0, %10
  %12 = fcmp nsz olt float %1, -1.000000e+00
  %or.cond = or i1 %12, %11
  %13 = sitofp i32 %4 to float
  %14 = fcmp nsz ogt float %1, %13
  %or.cond116 = or i1 %or.cond, %14
  br i1 %or.cond116, label %97, label %15

15:                                               ; preds = %9
  %16 = fptosi float %0 to i32
  %17 = add nsw i32 %16, 1
  %18 = fptosi float %1 to i32
  %19 = add nsw i32 %18, 1
  %20 = icmp slt i32 %16, -1
  %21 = icmp slt i32 %18, -1
  %or.cond3 = select i1 %20, i1 true, i1 %21
  br i1 %or.cond3, label %29, label %22

22:                                               ; preds = %15
  %.not = icmp slt i32 %17, %3
  %.not105 = icmp slt i32 %19, %4
  %or.cond117 = select i1 %.not, i1 %.not105, i1 false
  br i1 %or.cond117, label %23, label %29

23:                                               ; preds = %22
  %24 = mul nsw i32 %5, %19
  %25 = add nsw i32 %24, %17
  %26 = sext i32 %25 to i64
  %27 = getelementptr inbounds i8, ptr %2, i64 %26
  %28 = load i8, ptr %27, align 1, !tbaa !10
  br label %29

29:                                               ; preds = %22, %15, %23
  %.in = phi i8 [ %28, %23 ], [ %6, %15 ], [ %6, %22 ]
  %30 = icmp slt i32 %18, 0
  %or.cond5 = select i1 %20, i1 true, i1 %30
  br i1 %or.cond5, label %38, label %31

31:                                               ; preds = %29
  %.not106 = icmp slt i32 %17, %3
  %.not107 = icmp sgt i32 %4, %18
  %or.cond118 = select i1 %.not106, i1 %.not107, i1 false
  br i1 %or.cond118, label %32, label %38

32:                                               ; preds = %31
  %33 = mul nsw i32 %5, %18
  %34 = add nsw i32 %33, %17
  %35 = sext i32 %34 to i64
  %36 = getelementptr inbounds i8, ptr %2, i64 %35
  %37 = load i8, ptr %36, align 1, !tbaa !10
  br label %38

38:                                               ; preds = %31, %29, %32
  %.in108 = phi i8 [ %37, %32 ], [ %6, %29 ], [ %6, %31 ]
  %39 = icmp slt i32 %16, 0
  %or.cond7 = select i1 %39, i1 true, i1 %21
  br i1 %or.cond7, label %47, label %40

40:                                               ; preds = %38
  %.not109 = icmp sgt i32 %3, %16
  %.not110 = icmp slt i32 %19, %4
  %or.cond119 = select i1 %.not109, i1 %.not110, i1 false
  br i1 %or.cond119, label %41, label %47

41:                                               ; preds = %40
  %42 = mul nsw i32 %5, %19
  %43 = add nsw i32 %42, %16
  %44 = sext i32 %43 to i64
  %45 = getelementptr inbounds i8, ptr %2, i64 %44
  %46 = load i8, ptr %45, align 1, !tbaa !10
  br label %47

47:                                               ; preds = %40, %38, %41
  %.in111 = phi i8 [ %46, %41 ], [ %6, %38 ], [ %6, %40 ]
  %or.cond9 = select i1 %39, i1 true, i1 %30
  br i1 %or.cond9, label %55, label %48

48:                                               ; preds = %47
  %.not112 = icmp sgt i32 %3, %16
  %.not113 = icmp sgt i32 %4, %18
  %or.cond120 = select i1 %.not112, i1 %.not113, i1 false
  br i1 %or.cond120, label %49, label %55

49:                                               ; preds = %48
  %50 = mul nsw i32 %5, %18
  %51 = add nsw i32 %50, %16
  %52 = sext i32 %51 to i64
  %53 = getelementptr inbounds i8, ptr %2, i64 %52
  %54 = load i8, ptr %53, align 1, !tbaa !10
  br label %55

55:                                               ; preds = %48, %47, %49
  %.in114 = phi i8 [ %54, %49 ], [ %6, %47 ], [ %6, %48 ]
  %56 = sitofp i32 %17 to float
  %57 = fsub nsz float %56, %0
  %58 = sitofp i32 %19 to float
  %59 = fsub nsz float %58, %1
  %60 = fmul nsz float %57, %59
  %61 = fpext nsz float %60 to double
  %62 = tail call nsz double @llvm.sqrt.f64(double %61)
  %63 = fsub nsz double 1.000000e+00, %62
  %64 = fptrunc nsz double %63 to float
  %65 = sitofp i32 %18 to float
  %66 = fsub nsz float %1, %65
  %67 = fmul nsz float %57, %66
  %68 = fpext nsz float %67 to double
  %69 = tail call nsz double @llvm.sqrt.f64(double %68)
  %70 = fsub nsz double 1.000000e+00, %69
  %71 = fptrunc nsz double %70 to float
  %72 = sitofp i32 %16 to float
  %73 = fsub nsz float %0, %72
  %74 = fmul nsz float %73, %59
  %75 = fpext nsz float %74 to double
  %76 = tail call nsz double @llvm.sqrt.f64(double %75)
  %77 = fsub nsz double 1.000000e+00, %76
  %78 = fptrunc nsz double %77 to float
  %79 = fmul nsz float %73, %66
  %80 = fpext nsz float %79 to double
  %81 = tail call nsz double @llvm.sqrt.f64(double %80)
  %82 = fsub nsz double 1.000000e+00, %81
  %83 = fptrunc nsz double %82 to float
  %84 = uitofp i8 %.in to float
  %85 = uitofp i8 %.in108 to float
  %86 = fmul nsz float %71, %85
  %87 = tail call nsz float @llvm.fmuladd.f32(float %84, float %64, float %86)
  %88 = uitofp i8 %.in111 to float
  %89 = tail call nsz float @llvm.fmuladd.f32(float %88, float %78, float %87)
  %90 = uitofp i8 %.in114 to float
  %91 = tail call nsz float @llvm.fmuladd.f32(float %90, float %83, float %89)
  %92 = fadd nsz float %71, %64
  %93 = fadd nsz float %92, %78
  %94 = fadd nsz float %93, %83
  %95 = fdiv nsz float %91, %94
  %96 = fptoui float %95 to i8
  br label %97

97:                                               ; preds = %7, %9, %55
  %.0 = phi i8 [ %96, %55 ], [ %6, %9 ], [ %6, %7 ]
  ret i8 %.0
}